; Function Attrs: nounwind uwtable
define void @Psr_ManRemapBoxes(ptr noundef readonly captures(none) %0, ptr noundef readonly captures(none) %1, ptr noundef readonly captures(none) %2, ptr noundef readonly captures(none) %3) local_unnamed_addr #0 {
  %5 = getelementptr i8, ptr %2, i64 212
  %.val34 = load i32, ptr %5, align 4, !tbaa !3
  %6 = icmp sgt i32 %.val34, 0
  br i1 %6, label %.lr.ph, label %.critedge

.lr.ph:                                           ; preds = %4
  %7 = getelementptr i8, ptr %2, i64 200
  %8 = getelementptr i8, ptr %2, i64 216
  %9 = getelementptr i8, ptr %2, i64 8
  %10 = getelementptr i8, ptr %0, i64 24
  %11 = getelementptr i8, ptr %0, i64 36
  %12 = getelementptr i8, ptr %1, i64 4
  %13 = getelementptr i8, ptr %1, i64 8
  br label %14

14:                                               ; preds = %.lr.ph, %50
  %indvars.iv = phi i64 [ 0, %.lr.ph ], [ %indvars.iv.next, %50 ]
  %.val23 = load ptr, ptr %7, align 8, !tbaa !10
  %.val24 = load ptr, ptr %8, align 8, !tbaa !10
  %15 = getelementptr inbounds nuw i32, ptr %.val24, i64 %indvars.iv
  %16 = load i32, ptr %15, align 4, !tbaa !11
  %17 = sext i32 %16 to i64
  %18 = getelementptr inbounds i32, ptr %.val23, i64 %17
  %19 = load i32, ptr %18, align 4, !tbaa !11
  %20 = add nsw i32 %19, -2
  store i32 %20, ptr @Psr_BoxSignals.V, align 8, !tbaa !12
  store i32 %20, ptr getelementptr inbounds nuw (i8, ptr @Psr_BoxSignals.V, i64 4), align 4, !tbaa !3
  %21 = load i32, ptr %15, align 4, !tbaa !11
  %22 = sext i32 %21 to i64
  %23 = getelementptr i32, ptr %.val23, i64 %22
  %24 = getelementptr i8, ptr %23, i64 12
  store ptr %24, ptr getelementptr inbounds nuw (i8, ptr @Psr_BoxSignals.V, i64 8), align 8, !tbaa !10
  %.val25 = load ptr, ptr %7, align 8, !tbaa !10
  %.val26 = load ptr, ptr %8, align 8, !tbaa !10
  %25 = getelementptr inbounds nuw i32, ptr %.val26, i64 %indvars.iv
  %26 = load i32, ptr %25, align 4, !tbaa !11
  %27 = sext i32 %26 to i64
  %28 = getelementptr i32, ptr %.val25, i64 %27
  %29 = getelementptr i8, ptr %28, i64 12
  %30 = load i32, ptr %29, align 4, !tbaa !11
  %.not.i.not = icmp eq i32 %30, 0
  br i1 %.not.i.not, label %50, label %31

31:                                               ; preds = %14
  %32 = getelementptr i8, ptr %28, i64 4
  %33 = load i32, ptr %32, align 4, !tbaa !11
  %.val29 = load ptr, ptr %9, align 8, !tbaa !13
  %34 = tail call ptr @Abc_NamStr(ptr noundef %.val29, i32 noundef %33) #16
  %.val30 = load ptr, ptr %10, align 8, !tbaa !25
  %35 = tail call i32 @Abc_NamStrFind(ptr noundef %.val30, ptr noundef %34) #16
  %.val31 = load ptr, ptr %7, align 8, !tbaa !10
  %.val32 = load ptr, ptr %8, align 8, !tbaa !10
  %36 = getelementptr inbounds nuw i32, ptr %.val32, i64 %indvars.iv
  %37 = load i32, ptr %36, align 4, !tbaa !11
  %38 = sext i32 %37 to i64
  %39 = getelementptr i32, ptr %.val31, i64 %38
  %40 = getelementptr i8, ptr %39, i64 4
  store i32 %35, ptr %40, align 4, !tbaa !11
  %.val33 = load i32, ptr %11, align 4, !tbaa !30
  %.not22 = icmp sgt i32 %35, %.val33
  br i1 %.not22, label %50, label %41

41:                                               ; preds = %31
  %42 = icmp sgt i32 %35, 0
  br i1 %42, label %43, label %Psr_ManNtk.exit

43:                                               ; preds = %41
  %.val.i = load i32, ptr %12, align 4, !tbaa !31
  %.not = icmp sgt i32 %35, %.val.i
  br i1 %.not, label %Psr_ManNtk.exit, label %44

44:                                               ; preds = %43
  %.val4.i = load ptr, ptr %13, align 8, !tbaa !33
  %45 = zext nneg i32 %35 to i64
  %46 = getelementptr ptr, ptr %.val4.i, i64 %45
  %47 = getelementptr i8, ptr %46, i64 -8
  %48 = load ptr, ptr %47, align 8, !tbaa !34
  br label %Psr_ManNtk.exit

Psr_ManNtk.exit:                                  ; preds = %41, %43, %44
  %49 = phi ptr [ %48, %44 ], [ null, %43 ], [ null, %41 ]
  tail call void @Psr_ManRemapOne(ptr noundef nonnull @Psr_BoxSignals.V, ptr noundef %49, ptr noundef %3)
  br label %50

50:                                               ; preds = %31, %Psr_ManNtk.exit, %14
  %indvars.iv.next = add nuw nsw i64 %indvars.iv, 1
  %.val = load i32, ptr %5, align 4, !tbaa !3
  %51 = sext i32 %.val to i64
  %52 = icmp slt i64 %indvars.iv.next, %51
  br i1 %52, label %14, label %.critedge, !llvm.loop !35

.critedge:                                        ; preds = %50, %4
  ret void
}